; ModuleID = '56/2052.c'
source_filename = "56/2052.c"
target datalayout = "e-m:e-p270:32:32-p271:32:32-p272:64:64-i64:64-f80:128-n8:16:32:64-S128"
target triple = "x86_64-pc-linux-gnu"

@.str = private unnamed_addr constant [3 x i8] c"%d\00", align 1

; Function Attrs: noinline nounwind uwtable
define dso_local void @main() #0 {
  %1 = alloca i32, align 4
  %2 = alloca i32, align 4
  %3 = alloca i32, align 4
  %4 = alloca i32, align 4
  %5 = alloca i32, align 4
  %6 = alloca [6 x i32], align 16
  %7 = call i32 (i8*, ...) @__isoc99_scanf(i8* getelementptr inbounds ([3 x i8], [3 x i8]* @.str, i64 0, i64 0), i32* %5)
  store i32 0, i32* %1, align 4
  br label %8

8:                                                ; preds = %20, %0
  %9 = load i32, i32* %5, align 4
  %10 = srem i32 %9, 10
  %11 = load i32, i32* %1, align 4
  %12 = sext i32 %11 to i64
  %13 = getelementptr inbounds [6 x i32], [6 x i32]* %6, i64 0, i64 %12
  store i32 %10, i32* %13, align 4
  %14 = load i32, i32* %5, align 4
  %15 = sdiv i32 %14, 10
  store i32 %15, i32* %5, align 4
  %16 = load i32, i32* %5, align 4
  %17 = icmp slt i32 %16, 1
  br i1 %17, label %18, label %19

18:                                               ; preds = %8
  br label %23

19:                                               ; preds = %8
  br label %20

20:                                               ; preds = %19
  %21 = load i32, i32* %1, align 4
  %22 = add nsw i32 %21, 1
  store i32 %22, i32* %1, align 4
  br label %8

23:                                               ; preds = %18
  store i32 0, i32* %3, align 4
  br label %24

24:                                               ; preds = %50, %23
  %25 = load i32, i32* %3, align 4
  %26 = load i32, i32* %1, align 4
  %27 = icmp slt i32 %25, %26
  br i1 %27, label %28, label %53

28:                                               ; preds = %24
  %29 = load i32, i32* %3, align 4
  %30 = sext i32 %29 to i64
  %31 = getelementptr inbounds [6 x i32], [6 x i32]* %6, i64 0, i64 %30
  %32 = load i32, i32* %31, align 4
  store i32 %32, i32* %4, align 4
  %33 = load i32, i32* %1, align 4
  %34 = sub nsw i32 %33, 1
  %35 = load i32, i32* %3, align 4
  %36 = sub nsw i32 %34, %35
  %37 = sext i32 %36 to i64
  %38 = getelementptr inbounds [6 x i32], [6 x i32]* %6, i64 0, i64 %37
  %39 = load i32, i32* %38, align 4
  %40 = load i32, i32* %3, align 4
  %41 = sext i32 %40 to i64
  %42 = getelementptr inbounds [6 x i32], [6 x i32]* %6, i64 0, i64 %41
  store i32 %39, i32* %42, align 4
  %43 = load i32, i32* %4, align 4
  %44 = load i32, i32* %1, align 4
  %45 = sub nsw i32 %44, 1
  %46 = load i32, i32* %3, align 4
  %47 = sub nsw i32 %45, %46
  %48 = sext i32 %47 to i64
  %49 = getelementptr inbounds [6 x i32], [6 x i32]* %6, i64 0, i64 %48
  store i32 %43, i32* %49, align 4
  br label %50

50:                                               ; preds = %28
  %51 = load i32, i32* %3, align 4
  %52 = add nsw i32 %51, 1
  store i32 %52, i32* %3, align 4
  br label %24

53:                                               ; preds = %24
  store i32 0, i32* %3, align 4
  br label %54

54:                                               ; preds = %64, %53
  %55 = load i32, i32* %3, align 4
  %56 = load i32, i32* %1, align 4
  %57 = icmp sle i32 %55, %56
  br i1 %57, label %58, label %67

58:                                               ; preds = %54
  %59 = load i32, i32* %3, align 4
  %60 = sext i32 %59 to i64
  %61 = getelementptr inbounds [6 x i32], [6 x i32]* %6, i64 0, i64 %60
  %62 = load i32, i32* %61, align 4
  %63 = call i32 (i8*, ...) @printf(i8* getelementptr inbounds ([3 x i8], [3 x i8]* @.str, i64 0, i64 0), i32 %62)
  br label %64

64:                                               ; preds = %58
  %65 = load i32, i32* %3, align 4
  %66 = add nsw i32 %65, 1
  store i32 %66, i32* %3, align 4
  br label %54

67:                                               ; preds = %54
  ret void
}

declare dso_local i32 @__isoc99_scanf(i8*, ...) #1

declare dso_local i32 @printf(i8*, ...) #1


!llvm.module.flags = !{!0}
!llvm.ident = !{!1}

!0 = !{i32 1, !"wchar_size", i32 4}
!1 = !{!"clang version 10.0.0-4ubuntu1 "}
